; Function Attrs: mustprogress nofree norecurse nosync nounwind willreturn memory(read, inaccessiblemem: none) uwtable
define hidden noundef zeroext i1 @_ZN27java_lang_invoke_MemberName9is_methodEP7oopDesc(ptr noundef %0) local_unnamed_addr #8 align 2 {
  %2 = load i32, ptr @_ZN27java_lang_invoke_MemberName13_flags_offsetE, align 4
  %3 = ptrtoint ptr %0 to i64
  %4 = sext i32 %2 to i64
  %5 = add nsw i64 %4, %3
  %6 = inttoptr i64 %5 to ptr
  %7 = load i32, ptr %6, align 4
  %8 = and i32 %7, 196608
  %9 = icmp ne i32 %8, 0
  ret i1 %9
}